target datalayout = "e-m:e-p270:32:32-p271:32:32-p272:64:64-i64:64-i128:128-f80:128-n8:16:32:64-S128"
target triple = "x86_64-pc-linux-gnu"

%struct.exr_attr_float_vector_t = type { i32, i32, ptr }
%struct._priv_exr_context_t = type { i8, i8, i8, i8, i8, i8, i8, i8, %struct.exr_attr_string_t, %struct.exr_attr_string_t, ptr, ptr, ptr, ptr, ptr, ptr, ptr, ptr, i32, i32, i32, i32, i32, float, ptr, ptr, ptr, i64, ptr, ptr, i64, i32, i32, i32, i32, %struct._priv_exr_part_t, ptr, ptr, %struct.exr_attribute_list, %union.pthread_mutex_t, i8, i8, [2 x i8], i32 }
%struct.exr_attr_string_t = type { i32, i32, ptr }
%struct._priv_exr_part_t = type { i32, i32, %struct.exr_attribute_list, ptr, ptr, ptr, ptr, ptr, ptr, ptr, ptr, ptr, ptr, ptr, ptr, ptr, ptr, %struct.exr_attr_box2i_t, %struct.exr_attr_box2i_t, i32, i32, i32, float, i32, i32, ptr, ptr, ptr, ptr, i64, i16, i16, i32, i64, i64 }
%struct.exr_attr_box2i_t = type { %struct.exr_attr_v2i_t, %struct.exr_attr_v2i_t }
%struct.exr_attr_v2i_t = type { i32, i32 }
%struct.exr_attribute_list = type { i32, i32, ptr, ptr }
%union.pthread_mutex_t = type { %struct.__pthread_mutex_s }
%struct.__pthread_mutex_s = type { i32, i32, i32, i32, i32, i16, i16, %struct.__pthread_internal_list }
%struct.__pthread_internal_list = type { ptr, ptr }

@.str = private unnamed_addr constant [55 x i8] c"Invalid reference to float vector object to initialize\00", align 1
@.str.1 = private unnamed_addr constant [70 x i8] c"Received request to allocate negative sized float vector (%d entries)\00", align 1
@.str.3 = private unnamed_addr constant [54 x i8] c"Invalid reference to float array object to initialize\00", align 1

; Function Attrs: nounwind uwtable
define hidden i32 @exr_attr_float_vector_init_static(ptr noundef %0, ptr noundef %1, ptr noundef %2, i32 noundef %3) #0 {
  %5 = alloca i32, align 4
  %6 = alloca ptr, align 8
  %7 = alloca ptr, align 8
  %8 = alloca ptr, align 8
  %9 = alloca i32, align 4
  %10 = alloca %struct.exr_attr_float_vector_t, align 8
  %11 = alloca i32, align 4
  store ptr %0, ptr %6, align 8, !tbaa !3
  store ptr %1, ptr %7, align 8, !tbaa !8
  store ptr %2, ptr %8, align 8, !tbaa !28
  store i32 %3, ptr %9, align 4, !tbaa !9
  call void @llvm.lifetime.start.p0(i64 16, ptr %10) #4
  call void @llvm.memset.p0.i64(ptr align 8 %10, i8 0, i64 16, i1 false)
  %12 = load ptr, ptr %6, align 8, !tbaa !3
  %13 = icmp ne ptr %12, null
  br i1 %13, label %15, label %14

14:                                               ; preds = %4
  store i32 2, ptr %5, align 4
  store i32 1, ptr %11, align 4
  br label %53

15:                                               ; preds = %4
  %16 = load i32, ptr %9, align 4, !tbaa !9
  %17 = icmp slt i32 %16, 0
  br i1 %17, label %18, label %25

18:                                               ; preds = %15
  %19 = load ptr, ptr %6, align 8, !tbaa !3
  %20 = getelementptr inbounds nuw %struct._priv_exr_context_t, ptr %19, i32 0, i32 14
  %21 = load ptr, ptr %20, align 8, !tbaa !30
  %22 = load ptr, ptr %6, align 8, !tbaa !3
  %23 = load i32, ptr %9, align 4, !tbaa !9
  %24 = call i32 (ptr, i32, ptr, ...) %21(ptr noundef %22, i32 noundef 3, ptr noundef @.str.1, i32 noundef %23)
  store i32 %24, ptr %5, align 4
  store i32 1, ptr %11, align 4
  br label %53

25:                                               ; preds = %15
  %26 = load ptr, ptr %7, align 8, !tbaa !8
  %27 = icmp ne ptr %26, null
  br i1 %27, label %34, label %28

28:                                               ; preds = %25
  %29 = load ptr, ptr %6, align 8, !tbaa !3
  %30 = getelementptr inbounds nuw %struct._priv_exr_context_t, ptr %29, i32 0, i32 13
  %31 = load ptr, ptr %30, align 8, !tbaa !13
  %32 = load ptr, ptr %6, align 8, !tbaa !3
  %33 = call i32 %31(ptr noundef %32, i32 noundef 3, ptr noundef @.str)
  store i32 %33, ptr %5, align 4
  store i32 1, ptr %11, align 4
  br label %53

34:                                               ; preds = %25
  %35 = load ptr, ptr %8, align 8, !tbaa !28
  %36 = icmp ne ptr %35, null
  br i1 %36, label %43, label %37

37:                                               ; preds = %34
  %38 = load ptr, ptr %6, align 8, !tbaa !3
  %39 = getelementptr inbounds nuw %struct._priv_exr_context_t, ptr %38, i32 0, i32 13
  %40 = load ptr, ptr %39, align 8, !tbaa !13
  %41 = load ptr, ptr %6, align 8, !tbaa !3
  %42 = call i32 %40(ptr noundef %41, i32 noundef 3, ptr noundef @.str.3)
  store i32 %42, ptr %5, align 4
  store i32 1, ptr %11, align 4
  br label %53

43:                                               ; preds = %34
  %44 = load ptr, ptr %7, align 8, !tbaa !8
  call void @llvm.memcpy.p0.p0.i64(ptr align 8 %44, ptr align 8 %10, i64 16, i1 false), !tbaa.struct !27
  %45 = load ptr, ptr %8, align 8, !tbaa !28
  %46 = load ptr, ptr %7, align 8, !tbaa !8
  %47 = getelementptr inbounds nuw %struct.exr_attr_float_vector_t, ptr %46, i32 0, i32 2
  store ptr %45, ptr %47, align 8, !tbaa !32
  %48 = load i32, ptr %9, align 4, !tbaa !9
  %49 = load ptr, ptr %7, align 8, !tbaa !8
  %50 = getelementptr inbounds nuw %struct.exr_attr_float_vector_t, ptr %49, i32 0, i32 0
  store i32 %48, ptr %50, align 8, !tbaa !35
  %51 = load ptr, ptr %7, align 8, !tbaa !8
  %52 = getelementptr inbounds nuw %struct.exr_attr_float_vector_t, ptr %51, i32 0, i32 1
  store i32 0, ptr %52, align 4, !tbaa !36
  store i32 0, ptr %5, align 4
  store i32 1, ptr %11, align 4
  br label %53

53:                                               ; preds = %43, %37, %28, %18, %14
  call void @llvm.lifetime.end.p0(i64 16, ptr %10) #4
  %54 = load i32, ptr %5, align 4
  ret i32 %54
}