; Function Attrs: nounwind uwtable
define hidden i32 @exr_attr_float_vector_init_static(ptr noundef %0, ptr noundef writeonly %1, ptr noundef %2, i32 noundef %3) local_unnamed_addr #0 {
  %.not = icmp eq ptr %0, null
  br i1 %.not, label %24, label %5

5:                                                ; preds = %4
  %6 = icmp slt i32 %3, 0
  br i1 %6, label %7, label %11

7:                                                ; preds = %5
  %8 = getelementptr inbounds nuw i8, ptr %0, i64 72
  %9 = load ptr, ptr %8, align 8, !tbaa !22
  %10 = tail call i32 (ptr, i32, ptr, ...) %9(ptr noundef nonnull %0, i32 noundef 3, ptr noundef nonnull @.str.1, i32 noundef %3) #3
  br label %24

11:                                               ; preds = %5
  %.not21 = icmp eq ptr %1, null
  br i1 %.not21, label %12, label %16

12:                                               ; preds = %11
  %13 = getelementptr inbounds nuw i8, ptr %0, i64 64
  %14 = load ptr, ptr %13, align 8, !tbaa !3
  %15 = tail call i32 %14(ptr noundef nonnull %0, i32 noundef 3, ptr noundef nonnull @.str) #3
  br label %24

16:                                               ; preds = %11
  %.not22 = icmp eq ptr %2, null
  br i1 %.not22, label %17, label %21

17:                                               ; preds = %16
  %18 = getelementptr inbounds nuw i8, ptr %0, i64 64
  %19 = load ptr, ptr %18, align 8, !tbaa !3
  %20 = tail call i32 %19(ptr noundef nonnull %0, i32 noundef 3, ptr noundef nonnull @.str.3) #3
  br label %24

21:                                               ; preds = %16
  %22 = getelementptr inbounds nuw i8, ptr %1, i64 8
  store ptr %2, ptr %22, align 8, !tbaa !24
  store i32 %3, ptr %1, align 8, !tbaa !28
  %23 = getelementptr inbounds nuw i8, ptr %1, i64 4
  store i32 0, ptr %23, align 4, !tbaa !29
  br label %24

24:                                               ; preds = %4, %21, %17, %12, %7
  %.0 = phi i32 [ %10, %7 ], [ 0, %21 ], [ %20, %17 ], [ %15, %12 ], [ 2, %4 ]
  ret i32 %.0
}